; Function Attrs: mustprogress nounwind uwtable
define dso_local noundef zeroext i1 @_ZN5clang4Sema25BuiltinVectorToScalarMathEPNS_8CallExprE(ptr noundef nonnull align 8 dereferenceable(17560) %0, ptr noundef %1) local_unnamed_addr #0 align 2 {
  %3 = alloca %"class.clang::QualType", align 8
  store i64 0, ptr %3, align 8
  %4 = call noundef zeroext i1 @_ZN5clang4Sema17BuiltinVectorMathEPNS_8CallExprERNS_8QualTypeE(ptr noundef nonnull align 8 dereferenceable(17560) %0, ptr noundef %1, ptr noundef nonnull align 8 dereferenceable(8) %3)
  br i1 %4, label %23, label %5

5:                                                ; preds = %2
  %.0.copyload.i.i.i.i.i = load i64, ptr %3, align 8
  %6 = and i64 %.0.copyload.i.i.i.i.i, -16
  %7 = inttoptr i64 %6 to ptr
  %8 = load ptr, ptr %7, align 16
  %9 = getelementptr inbounds nuw i8, ptr %8, i64 16
  %10 = load i8, ptr %9, align 16
  %11 = and i8 %10, -2
  %spec.select.i.i.i.i.i.i.i.i.not.i = icmp eq i8 %11, 56
  br i1 %spec.select.i.i.i.i.i.i.i.i.not.i, label %_ZNK5clang4Type5getAsINS_10VectorTypeEEEPKT_v.exit.thread11, label %12

12:                                               ; preds = %5
  %13 = getelementptr inbounds nuw i8, ptr %8, i64 8
  %.sroa.0.0.copyload.i.i.i.i = load i64, ptr %13, align 8
  %14 = and i64 %.sroa.0.0.copyload.i.i.i.i, -16
  %15 = inttoptr i64 %14 to ptr
  %16 = load ptr, ptr %15, align 16
  %17 = getelementptr inbounds nuw i8, ptr %16, i64 16
  %18 = load i8, ptr %17, align 16
  %19 = and i8 %18, -2
  %spec.select.i.i.i.i.i.i.i.i5.i = icmp eq i8 %19, 56
  br i1 %spec.select.i.i.i.i.i.i.i.i5.i, label %_ZNK5clang4Type5getAsINS_10VectorTypeEEEPKT_v.exit, label %.sink.split

_ZNK5clang4Type5getAsINS_10VectorTypeEEEPKT_v.exit: ; preds = %12
  %20 = tail call noundef ptr @_ZNK5clang4Type27getUnqualifiedDesugaredTypeEv(ptr noundef nonnull align 16 dereferenceable(24) %8) #25
  %.not = icmp eq ptr %20, null
  br i1 %.not, label %.sink.split, label %_ZNK5clang4Type5getAsINS_10VectorTypeEEEPKT_v.exit.thread11

_ZNK5clang4Type5getAsINS_10VectorTypeEEEPKT_v.exit.thread11: ; preds = %5, %_ZNK5clang4Type5getAsINS_10VectorTypeEEEPKT_v.exit
  %.0.i14 = phi ptr [ %20, %_ZNK5clang4Type5getAsINS_10VectorTypeEEEPKT_v.exit ], [ %8, %5 ]
  %21 = getelementptr inbounds nuw i8, ptr %.0.i14, i64 32
  %.sroa.0.0.copyload.i = load i64, ptr %21, align 16
  br label %.sink.split

.sink.split:                                      ; preds = %_ZNK5clang4Type5getAsINS_10VectorTypeEEEPKT_v.exit, %12, %_ZNK5clang4Type5getAsINS_10VectorTypeEEEPKT_v.exit.thread11
  %.sroa.0.0.copyload.i.sink = phi i64 [ %.sroa.0.0.copyload.i, %_ZNK5clang4Type5getAsINS_10VectorTypeEEEPKT_v.exit.thread11 ], [ %.0.copyload.i.i.i.i.i, %12 ], [ %.0.copyload.i.i.i.i.i, %_ZNK5clang4Type5getAsINS_10VectorTypeEEEPKT_v.exit ]
  %22 = getelementptr inbounds nuw i8, ptr %1, i64 8
  store i64 %.sroa.0.0.copyload.i.sink, ptr %22, align 8
  br label %23

23:                                               ; preds = %.sink.split, %2
  ret i1 %4
}